; Function Attrs: null_pointer_is_valid sspstrong uwtable
define hidden noundef ptr @fvalue_from_uinteger64(i32 noundef %0, ptr noundef %1, i64 noundef %2, ptr noundef %3) local_unnamed_addr #0 {
  %5 = tail call noalias dereferenceable_or_null(40) ptr @g_slice_alloc(i64 noundef 40) #10
  %6 = zext i32 %0 to i64
  %7 = getelementptr [48 x ptr], ptr @type_list, i64 0, i64 %6
  %8 = load ptr, ptr %7, align 8
  store ptr %8, ptr %5, align 8
  %9 = getelementptr inbounds nuw i8, ptr %8, i64 8
  %10 = load ptr, ptr %9, align 8
  %.not.i = icmp eq ptr %10, null
  br i1 %.not.i, label %fvalue_new.exit, label %11

11:                                               ; preds = %4
  tail call void %10(ptr noundef %5)
  %.pre = load ptr, ptr %5, align 8
  br label %fvalue_new.exit

fvalue_new.exit:                                  ; preds = %4, %11
  %12 = phi ptr [ %8, %4 ], [ %.pre, %11 ]
  %13 = getelementptr inbounds nuw i8, ptr %12, i64 56
  %14 = load ptr, ptr %13, align 8
  %.not = icmp eq ptr %14, null
  br i1 %.not, label %19, label %15

15:                                               ; preds = %fvalue_new.exit
  %16 = tail call zeroext i1 %14(ptr noundef %5, ptr noundef %1, i64 noundef %2, ptr noundef %3)
  br i1 %16, label %17, label %19

17:                                               ; preds = %15
  %.not19 = icmp eq ptr %3, null
  br i1 %.not19, label %34, label %18

18:                                               ; preds = %17
  store ptr null, ptr %3, align 8
  br label %34

19:                                               ; preds = %15, %fvalue_new.exit
  %.not18 = icmp eq ptr %3, null
  br i1 %.not18, label %29, label %20

20:                                               ; preds = %19
  %21 = load ptr, ptr %3, align 8
  %22 = icmp eq ptr %21, null
  br i1 %22, label %23, label %29

23:                                               ; preds = %20
  %24 = load ptr, ptr %7, align 8
  %25 = load i32, ptr %24, align 8
  %26 = icmp ult i32 %25, 48
  br i1 %26, label %switch.lookup, label %ftype_pretty_name.exit

switch.lookup:                                    ; preds = %23
  %27 = zext nneg i32 %25 to i64
  %switch.gep = getelementptr inbounds nuw [48 x ptr], ptr @switch.table.fvalue_from_floating, i64 0, i64 %27
  %switch.load = load ptr, ptr %switch.gep, align 8
  br label %ftype_pretty_name.exit

ftype_pretty_name.exit:                           ; preds = %switch.lookup, %23
  %.0.i = phi ptr [ @.str.3, %23 ], [ %switch.load, %switch.lookup ]
  %28 = tail call noalias ptr (ptr, ptr, ...) @wmem_strdup_printf(ptr noundef null, ptr noundef nonnull @.str.100, i64 noundef %2, ptr noundef nonnull %.0.i)
  store ptr %28, ptr %3, align 8
  br label %29

29:                                               ; preds = %19, %20, %ftype_pretty_name.exit
  %30 = load ptr, ptr %5, align 8
  %31 = getelementptr inbounds nuw i8, ptr %30, i64 24
  %32 = load ptr, ptr %31, align 8
  %.not.i.i = icmp eq ptr %32, null
  br i1 %.not.i.i, label %fvalue_free.exit, label %33

33:                                               ; preds = %29
  tail call void %32(ptr noundef %5)
  br label %fvalue_free.exit

fvalue_free.exit:                                 ; preds = %29, %33
  tail call void @g_slice_free1(i64 noundef 40, ptr noundef %5)
  br label %34

34:                                               ; preds = %17, %18, %fvalue_free.exit
  %.0 = phi ptr [ null, %fvalue_free.exit ], [ %5, %18 ], [ %5, %17 ]
  ret ptr %.0
}